target datalayout = "e-m:e-p270:32:32-p271:32:32-p272:64:64-i64:64-i128:128-f80:128-n8:16:32:64-S128"
target triple = "x86_64-pc-linux-gnu"

%struct.archive_read = type { %struct.archive, ptr, i32, i64, i64, %struct.archive_read_client, [16 x %struct.archive_read_filter_bidder], ptr, i32, i64, i32, i32, [16 x %struct.archive_format_descriptor], ptr, ptr, ptr, %struct.anon }
%struct.archive = type { i32, i32, ptr, i32, ptr, i32, i32, ptr, %struct.archive_string, ptr, i32, i32, ptr, ptr, i64, i64, i64, i8, i64 }
%struct.archive_string = type { ptr, i64, i64 }
%struct.archive_read_client = type { ptr, ptr, ptr, ptr, ptr, ptr, i32, i32, i64, ptr }
%struct.archive_read_filter_bidder = type { ptr, ptr, ptr }
%struct.archive_format_descriptor = type { ptr, ptr, ptr, ptr, ptr, ptr, ptr, ptr, ptr, ptr, ptr }
%struct.anon = type { ptr, ptr, i32, ptr, ptr }

; Function Attrs: nounwind uwtable
define internal i32 @_archive_read_next_header(ptr noundef %0, ptr noundef %1) #0 {
  %3 = alloca ptr, align 8
  %4 = alloca ptr, align 8
  %5 = alloca i32, align 4
  %6 = alloca ptr, align 8
  store ptr %0, ptr %3, align 8, !tbaa !31
  store ptr %1, ptr %4, align 8, !tbaa !145
  call void @llvm.lifetime.start.p0(i64 4, ptr %5) #11
  call void @llvm.lifetime.start.p0(i64 8, ptr %6) #11
  %7 = load ptr, ptr %3, align 8, !tbaa !31
  store ptr %7, ptr %6, align 8, !tbaa !4
  %8 = load ptr, ptr %4, align 8, !tbaa !145
  store ptr null, ptr %8, align 8, !tbaa !90
  %9 = load ptr, ptr %3, align 8, !tbaa !31
  %10 = load ptr, ptr %6, align 8, !tbaa !4
  %11 = getelementptr inbounds nuw %struct.archive_read, ptr %10, i32 0, i32 1
  %12 = load ptr, ptr %11, align 8, !tbaa !28
  %13 = call i32 @_archive_read_next_header2(ptr noundef %9, ptr noundef %12)
  store i32 %13, ptr %5, align 4, !tbaa !38
  %14 = load ptr, ptr %6, align 8, !tbaa !4
  %15 = getelementptr inbounds nuw %struct.archive_read, ptr %14, i32 0, i32 1
  %16 = load ptr, ptr %15, align 8, !tbaa !28
  %17 = load ptr, ptr %4, align 8, !tbaa !145
  store ptr %16, ptr %17, align 8, !tbaa !90
  %18 = load i32, ptr %5, align 4, !tbaa !38
  call void @llvm.lifetime.end.p0(i64 8, ptr %6) #11
  call void @llvm.lifetime.end.p0(i64 4, ptr %5) #11
  ret i32 %18
}